target datalayout = "e-m:e-p270:32:32-p271:32:32-p272:64:64-i64:64-i128:128-f80:128-n8:16:32:64-S128"
target triple = "x86_64-pc-linux-gnu"

%struct.ZSTD_customMem = type { ptr, ptr, ptr }
%struct.ZSTD_DCtx_s = type { ptr, ptr, ptr, ptr, %struct.ZSTD_entropyDTables_t, [640 x i32], ptr, ptr, ptr, ptr, i64, %struct.ZSTD_FrameHeader, i64, i64, i32, i32, i32, i32, %struct.XXH64_state_s, i64, i32, i32, i32, ptr, %struct.ZSTD_customMem, i64, i64, i64, i32, i32, ptr, ptr, i32, i32, i32, ptr, i32, i32, i32, i32, ptr, i64, i64, i64, ptr, i64, i64, i64, i64, ptr, i32, i32, i32, i32, i32, %struct.ZSTD_outBuffer_s, ptr, ptr, i32, [65568 x i8], [18 x i8], i64, i64 }
%struct.ZSTD_entropyDTables_t = type { [513 x %struct.ZSTD_seqSymbol], [257 x %struct.ZSTD_seqSymbol], [513 x %struct.ZSTD_seqSymbol], [4097 x i32], [3 x i32], [157 x i32] }
%struct.ZSTD_seqSymbol = type { i16, i8, i8, i32 }
%struct.ZSTD_FrameHeader = type { i64, i64, i32, i32, i32, i32, i32, i32, i32 }
%struct.XXH64_state_s = type { i64, [4 x i64], [4 x i64], i32, i32, i64 }
%struct.ZSTD_outBuffer_s = type { ptr, i64, i64 }

; Function Attrs: nounwind uwtable
define i32 @ZSTD_nextInputType(ptr noundef %0) #0 {
  %2 = alloca i32, align 4
  %3 = alloca ptr, align 8
  store ptr %0, ptr %3, align 8, !tbaa !3
  %4 = load ptr, ptr %3, align 8, !tbaa !3
  %5 = getelementptr inbounds nuw %struct.ZSTD_DCtx_s, ptr %4, i32 0, i32 15
  %6 = load i32, ptr %5, align 4, !tbaa !80
  switch i32 %6, label %7 [
    i32 0, label %8
    i32 1, label %9
    i32 2, label %10
    i32 3, label %11
    i32 4, label %12
    i32 5, label %13
    i32 6, label %14
    i32 7, label %15
  ]

7:                                                ; preds = %1
  br label %8

8:                                                ; preds = %1, %7
  br label %9

9:                                                ; preds = %1, %8
  store i32 0, ptr %2, align 4
  br label %16

10:                                               ; preds = %1
  store i32 1, ptr %2, align 4
  br label %16

11:                                               ; preds = %1
  store i32 2, ptr %2, align 4
  br label %16

12:                                               ; preds = %1
  store i32 3, ptr %2, align 4
  br label %16

13:                                               ; preds = %1
  store i32 4, ptr %2, align 4
  br label %16

14:                                               ; preds = %1
  br label %15

15:                                               ; preds = %1, %14
  store i32 5, ptr %2, align 4
  br label %16

16:                                               ; preds = %15, %13, %12, %11, %10, %9
  %17 = load i32, ptr %2, align 4
  ret i32 %17
}