; Function Attrs: mustprogress nofree norecurse nosync nounwind willreturn memory(argmem: read) uwtable
define range(i32 0, 6) i32 @ZSTD_nextInputType(ptr noundef readonly captures(none) %0) local_unnamed_addr #8 {
  %2 = getelementptr inbounds nuw i8, ptr %0, i64 29996
  %3 = load i32, ptr %2, align 4, !tbaa !88
  %switch.tableidx = add i32 %3, -2
  %4 = icmp ult i32 %switch.tableidx, 6
  br i1 %4, label %switch.lookup, label %6

switch.lookup:                                    ; preds = %1
  %5 = zext nneg i32 %switch.tableidx to i64
  %switch.gep = getelementptr inbounds nuw [6 x i32], ptr @switch.table.ZSTD_nextInputType, i64 0, i64 %5
  %switch.load = load i32, ptr %switch.gep, align 4
  br label %6

6:                                                ; preds = %switch.lookup, %1
  %.0 = phi i32 [ 0, %1 ], [ %switch.load, %switch.lookup ]
  ret i32 %.0
}